; Function Attrs: mustprogress uwtable
define void @_ZN5Ipopt17RegisteredOptions28AddLowerBoundedIntegerOptionERKNSt7__cxx1112basic_stringIcSt11char_traitsIcESaIcEEES8_iiS8_b(ptr noundef nonnull align 8 dereferenceable(128) %0, ptr noundef nonnull align 8 dereferenceable(32) %1, ptr noundef nonnull align 8 dereferenceable(32) %2, i32 noundef %3, i32 noundef %4, ptr noundef nonnull align 8 dereferenceable(32) %5, i1 noundef zeroext %6) unnamed_addr #3 align 2 personality ptr @__gxx_personality_v0 {
  %8 = alloca i32, align 4
  %9 = alloca i32, align 4
  %10 = alloca %"class.Ipopt::SmartPtr.21", align 8
  %11 = alloca i32, align 4
  store i32 %3, ptr %8, align 4, !tbaa !99
  store i32 %4, ptr %9, align 4, !tbaa !99
  call void @llvm.lifetime.start.p0(i64 8, ptr nonnull %10) #23
  %12 = tail call noalias noundef nonnull dereferenceable(224) ptr @_Znwm(i64 noundef 224) #27
  %13 = getelementptr inbounds nuw i8, ptr %0, i64 120
  %14 = getelementptr inbounds nuw i8, ptr %0, i64 112
  %15 = load i32, ptr %14, align 8, !tbaa !86
  %16 = add nsw i32 %15, 1
  store i32 %16, ptr %14, align 8, !tbaa !86
  invoke void @_ZN5Ipopt16RegisteredOptionC2ERKNSt7__cxx1112basic_stringIcSt11char_traitsIcESaIcEEES8_S8_RKNS_8SmartPtrINS_18RegisteredCategoryEEEib(ptr noundef nonnull align 8 dereferenceable(220) %12, ptr noundef nonnull align 8 dereferenceable(32) %1, ptr noundef nonnull align 8 dereferenceable(32) %2, ptr noundef nonnull align 8 dereferenceable(32) %5, ptr noundef nonnull align 8 dereferenceable(8) %13, i32 noundef %15, i1 noundef zeroext %6)
          to label %17 unwind label %41

17:                                               ; preds = %7
  %18 = getelementptr inbounds nuw i8, ptr %12, i64 8
  %19 = load i32, ptr %18, align 8, !tbaa !59
  %20 = add nsw i32 %19, 1
  store i32 %20, ptr %18, align 8, !tbaa !59
  store ptr %12, ptr %10, align 8, !tbaa !80
  call void @llvm.lifetime.start.p0(i64 4, ptr nonnull %11) #23
  store i32 1, ptr %11, align 4, !tbaa !96
  %21 = load ptr, ptr %12, align 8, !tbaa !32
  %22 = getelementptr inbounds nuw i8, ptr %21, i64 80
  %23 = load ptr, ptr %22, align 8
  invoke void %23(ptr noundef nonnull align 8 dereferenceable(220) %12, ptr noundef nonnull align 4 dereferenceable(4) %11)
          to label %24 unwind label %45

24:                                               ; preds = %17
  call void @llvm.lifetime.end.p0(i64 4, ptr nonnull %11) #23
  %25 = load ptr, ptr %12, align 8, !tbaa !32
  %26 = getelementptr inbounds nuw i8, ptr %25, i64 240
  %27 = load ptr, ptr %26, align 8
  invoke void %27(ptr noundef nonnull align 8 dereferenceable(220) %12, ptr noundef nonnull align 4 dereferenceable(4) %9)
          to label %28 unwind label %43

28:                                               ; preds = %24
  %29 = load ptr, ptr %12, align 8, !tbaa !32
  %30 = getelementptr inbounds nuw i8, ptr %29, i64 152
  %31 = load ptr, ptr %30, align 8
  invoke void %31(ptr noundef nonnull align 8 dereferenceable(220) %12, ptr noundef nonnull align 4 dereferenceable(4) %8)
          to label %32 unwind label %43

32:                                               ; preds = %28
  invoke void @_ZN5Ipopt17RegisteredOptions9AddOptionERKNS_8SmartPtrINS_16RegisteredOptionEEE(ptr noundef nonnull align 8 dereferenceable(128) %0, ptr noundef nonnull align 8 dereferenceable(8) %10)
          to label %33 unwind label %43

33:                                               ; preds = %32
  %34 = load i32, ptr %18, align 8, !tbaa !59
  %35 = add nsw i32 %34, -1
  store i32 %35, ptr %18, align 8, !tbaa !59
  %36 = icmp eq i32 %35, 0
  br i1 %36, label %37, label %_ZN5Ipopt8SmartPtrINS_16RegisteredOptionEED2Ev.exit

37:                                               ; preds = %33
  %38 = load ptr, ptr %12, align 8, !tbaa !32
  %39 = getelementptr inbounds nuw i8, ptr %38, i64 8
  %40 = load ptr, ptr %39, align 8
  call void %40(ptr noundef nonnull align 8 dereferenceable(220) %12) #23
  br label %_ZN5Ipopt8SmartPtrINS_16RegisteredOptionEED2Ev.exit

_ZN5Ipopt8SmartPtrINS_16RegisteredOptionEED2Ev.exit: ; preds = %33, %37
  call void @llvm.lifetime.end.p0(i64 8, ptr nonnull %10) #23
  ret void

41:                                               ; preds = %7
  %42 = landingpad { ptr, i32 }
          cleanup
  tail call void @_ZdlPvm(ptr noundef nonnull %12, i64 noundef 224) #24
  br label %_ZN5Ipopt8SmartPtrINS_16RegisteredOptionEED2Ev.exit11

43:                                               ; preds = %32, %28, %24
  %44 = landingpad { ptr, i32 }
          cleanup
  br label %47

45:                                               ; preds = %17
  %46 = landingpad { ptr, i32 }
          cleanup
  call void @llvm.lifetime.end.p0(i64 4, ptr nonnull %11) #23
  br label %47

47:                                               ; preds = %43, %45
  %.pn = phi { ptr, i32 } [ %44, %43 ], [ %46, %45 ]
  %48 = load i32, ptr %18, align 8, !tbaa !59
  %49 = add nsw i32 %48, -1
  store i32 %49, ptr %18, align 8, !tbaa !59
  %50 = icmp eq i32 %49, 0
  br i1 %50, label %51, label %_ZN5Ipopt8SmartPtrINS_16RegisteredOptionEED2Ev.exit11

51:                                               ; preds = %47
  %52 = load ptr, ptr %12, align 8, !tbaa !32
  %53 = getelementptr inbounds nuw i8, ptr %52, i64 8
  %54 = load ptr, ptr %53, align 8
  call void %54(ptr noundef nonnull align 8 dereferenceable(220) %12) #23
  br label %_ZN5Ipopt8SmartPtrINS_16RegisteredOptionEED2Ev.exit11

_ZN5Ipopt8SmartPtrINS_16RegisteredOptionEED2Ev.exit11: ; preds = %51, %47, %41
  %.pn.pn = phi { ptr, i32 } [ %42, %41 ], [ %.pn, %47 ], [ %.pn, %51 ]
  call void @llvm.lifetime.end.p0(i64 8, ptr nonnull %10) #23
  resume { ptr, i32 } %.pn.pn
}